target datalayout = "e-m:e-p270:32:32-p271:32:32-p272:64:64-i64:64-i128:128-f80:128-n8:16:32:64-S128"
target triple = "x86_64-pc-linux-gnu"

%struct.RelMapFile = type { i32, i32, [64 x %struct.RelMapping], i32 }
%struct.RelMapping = type { i32, i32 }
%union.LWLockPadded = type { %struct.LWLock, [112 x i8] }
%struct.LWLock = type { i16, %struct.pg_atomic_uint32, %struct.proclist_head }
%struct.pg_atomic_uint32 = type { i32 }
%struct.proclist_head = type { i32, i32 }

@MainLWLockArray = external global ptr, align 8
@.str.1 = private unnamed_addr constant [12 x i8] c"relmapper.c\00", align 1
@.str.11 = private unnamed_addr constant [6 x i8] c"%s/%s\00", align 1
@.str.12 = private unnamed_addr constant [16 x i8] c"pg_filenode.map\00", align 1
@.str.13 = private unnamed_addr constant [29 x i8] c"could not open file \22%s\22: %m\00", align 1
@__func__.read_relmap_file = private unnamed_addr constant [17 x i8] c"read_relmap_file\00", align 1
@.str.14 = private unnamed_addr constant [29 x i8] c"could not read file \22%s\22: %m\00", align 1
@.str.15 = private unnamed_addr constant [41 x i8] c"could not read file \22%s\22: read %d of %zu\00", align 1
@.str.16 = private unnamed_addr constant [30 x i8] c"could not close file \22%s\22: %m\00", align 1
@.str.17 = private unnamed_addr constant [49 x i8] c"relation mapping file \22%s\22 contains invalid data\00", align 1
@pg_comp_crc32c = external global ptr, align 8
@.str.18 = private unnamed_addr constant [55 x i8] c"relation mapping file \22%s\22 contains incorrect checksum\00", align 1
@my_wait_event_info = external global ptr, align 8

; Function Attrs: inlinehint nounwind uwtable
define internal void @pgstat_report_wait_end() #6 {
  %1 = load ptr, ptr @my_wait_event_info, align 8
  store volatile i32 0, ptr %1, align 4
  ret void
}

; Function Attrs: inlinehint nounwind uwtable
define internal void @pgstat_report_wait_start(i32 noundef %0) #6 {
  %2 = alloca i32, align 4
  store i32 %0, ptr %2, align 4
  %3 = load i32, ptr %2, align 4
  %4 = load ptr, ptr @my_wait_event_info, align 8
  store volatile i32 %3, ptr %4, align 4
  ret void
}

; Function Attrs: nounwind uwtable
define internal void @read_relmap_file(ptr noundef %0, ptr noundef %1, i1 noundef zeroext %2, i32 noundef %3) #0 {
  %5 = alloca ptr, align 8
  %6 = alloca ptr, align 8
  %7 = alloca i8, align 1
  %8 = alloca i32, align 4
  %9 = alloca [1024 x i8], align 16
  %10 = alloca i32, align 4
  %11 = alloca i32, align 4
  %12 = alloca i32, align 4
  store ptr %0, ptr %5, align 8
  store ptr %1, ptr %6, align 8
  %13 = zext i1 %2 to i8
  store i8 %13, ptr %7, align 1
  store i32 %3, ptr %8, align 4
  call void @llvm.lifetime.start.p0(i64 1024, ptr %9) #8
  call void @llvm.lifetime.start.p0(i64 4, ptr %10) #8
  call void @llvm.lifetime.start.p0(i64 4, ptr %11) #8
  call void @llvm.lifetime.start.p0(i64 4, ptr %12) #8
  %14 = load i8, ptr %7, align 1, !range !4, !noundef !5
  %15 = trunc i8 %14 to i1
  br i1 %15, label %20, label %16

16:                                               ; preds = %4
  %17 = load ptr, ptr @MainLWLockArray, align 8
  %18 = getelementptr inbounds %union.LWLockPadded, ptr %17, i64 25
  %19 = call zeroext i1 @LWLockAcquire(ptr noundef %18, i32 noundef 1)
  br label %20

20:                                               ; preds = %16, %4
  %21 = getelementptr inbounds [1024 x i8], ptr %9, i64 0, i64 0
  %22 = load ptr, ptr %6, align 8
  %23 = call i32 (ptr, i64, ptr, ...) @pg_snprintf(ptr noundef %21, i64 noundef 1024, ptr noundef @.str.11, ptr noundef %22, ptr noundef @.str.12)
  %24 = getelementptr inbounds [1024 x i8], ptr %9, i64 0, i64 0
  %25 = call i32 @OpenTransientFile(ptr noundef %24, i32 noundef 0)
  store i32 %25, ptr %11, align 4
  %26 = load i32, ptr %11, align 4
  %27 = icmp slt i32 %26, 0
  br i1 %27, label %28, label %55

28:                                               ; preds = %20
  br label %29

29:                                               ; preds = %28
  %30 = load i32, ptr %8, align 4
  %31 = call i1 @llvm.is.constant.i32(i32 %30)
  br i1 %31, label %32, label %38

32:                                               ; preds = %29
  %33 = load i32, ptr %8, align 4
  %34 = icmp sge i32 %33, 21
  br i1 %34, label %35, label %38

35:                                               ; preds = %32
  %36 = load i32, ptr %8, align 4
  %37 = call zeroext i1 @errstart_cold(i32 noundef %36, ptr noundef null) #9
  br i1 %37, label %41, label %45

38:                                               ; preds = %32, %29
  %39 = load i32, ptr %8, align 4
  %40 = call zeroext i1 @errstart(i32 noundef %39, ptr noundef null)
  br i1 %40, label %41, label %45

41:                                               ; preds = %38, %35
  %42 = call i32 @errcode_for_file_access()
  %43 = getelementptr inbounds [1024 x i8], ptr %9, i64 0, i64 0
  %44 = call i32 (ptr, ...) @errmsg(ptr noundef @.str.13, ptr noundef %43)
  call void @errfinish(ptr noundef @.str.1, i32 noundef 819, ptr noundef @__func__.read_relmap_file)
  br label %45

45:                                               ; preds = %41, %38, %35
  %46 = load i32, ptr %8, align 4
  %47 = call i1 @llvm.is.constant.i32(i32 %46)
  br i1 %47, label %48, label %52

48:                                               ; preds = %45
  %49 = load i32, ptr %8, align 4
  %50 = icmp sge i32 %49, 21
  br i1 %50, label %51, label %52

51:                                               ; preds = %48
  unreachable

52:                                               ; preds = %48, %45
  br label %53

53:                                               ; preds = %52
  br label %54

54:                                               ; preds = %53
  br label %55

55:                                               ; preds = %54, %20
  call void @pgstat_report_wait_start(i32 noundef 167772196)
  %56 = load i32, ptr %11, align 4
  %57 = load ptr, ptr %5, align 8
  %58 = call i64 @read(i32 noundef %56, ptr noundef %57, i64 noundef 524)
  %59 = trunc i64 %58 to i32
  store i32 %59, ptr %12, align 4
  %60 = load i32, ptr %12, align 4
  %61 = sext i32 %60 to i64
  %62 = icmp ne i64 %61, 524
  br i1 %62, label %63, label %122

63:                                               ; preds = %55
  %64 = load i32, ptr %12, align 4
  %65 = icmp slt i32 %64, 0
  br i1 %65, label %66, label %93

66:                                               ; preds = %63
  br label %67

67:                                               ; preds = %66
  %68 = load i32, ptr %8, align 4
  %69 = call i1 @llvm.is.constant.i32(i32 %68)
  br i1 %69, label %70, label %76

70:                                               ; preds = %67
  %71 = load i32, ptr %8, align 4
  %72 = icmp sge i32 %71, 21
  br i1 %72, label %73, label %76

73:                                               ; preds = %70
  %74 = load i32, ptr %8, align 4
  %75 = call zeroext i1 @errstart_cold(i32 noundef %74, ptr noundef null) #9
  br i1 %75, label %79, label %83

76:                                               ; preds = %70, %67
  %77 = load i32, ptr %8, align 4
  %78 = call zeroext i1 @errstart(i32 noundef %77, ptr noundef null)
  br i1 %78, label %79, label %83

79:                                               ; preds = %76, %73
  %80 = call i32 @errcode_for_file_access()
  %81 = getelementptr inbounds [1024 x i8], ptr %9, i64 0, i64 0
  %82 = call i32 (ptr, ...) @errmsg(ptr noundef @.str.14, ptr noundef %81)
  call void @errfinish(ptr noundef @.str.1, i32 noundef 829, ptr noundef @__func__.read_relmap_file)
  br label %83

83:                                               ; preds = %79, %76, %73
  %84 = load i32, ptr %8, align 4
  %85 = call i1 @llvm.is.constant.i32(i32 %84)
  br i1 %85, label %86, label %90

86:                                               ; preds = %83
  %87 = load i32, ptr %8, align 4
  %88 = icmp sge i32 %87, 21
  br i1 %88, label %89, label %90

89:                                               ; preds = %86
  unreachable

90:                                               ; preds = %86, %83
  br label %91

91:                                               ; preds = %90
  br label %92

92:                                               ; preds = %91
  br label %121

93:                                               ; preds = %63
  br label %94

94:                                               ; preds = %93
  %95 = load i32, ptr %8, align 4
  %96 = call i1 @llvm.is.constant.i32(i32 %95)
  br i1 %96, label %97, label %103

97:                                               ; preds = %94
  %98 = load i32, ptr %8, align 4
  %99 = icmp sge i32 %98, 21
  br i1 %99, label %100, label %103

100:                                              ; preds = %97
  %101 = load i32, ptr %8, align 4
  %102 = call zeroext i1 @errstart_cold(i32 noundef %101, ptr noundef null) #9
  br i1 %102, label %106, label %111

103:                                              ; preds = %97, %94
  %104 = load i32, ptr %8, align 4
  %105 = call zeroext i1 @errstart(i32 noundef %104, ptr noundef null)
  br i1 %105, label %106, label %111

106:                                              ; preds = %103, %100
  %107 = call i32 @errcode(i32 noundef 16779816)
  %108 = getelementptr inbounds [1024 x i8], ptr %9, i64 0, i64 0
  %109 = load i32, ptr %12, align 4
  %110 = call i32 (ptr, ...) @errmsg(ptr noundef @.str.15, ptr noundef %108, i32 noundef %109, i64 noundef 524)
  call void @errfinish(ptr noundef @.str.1, i32 noundef 834, ptr noundef @__func__.read_relmap_file)
  br label %111

111:                                              ; preds = %106, %103, %100
  %112 = load i32, ptr %8, align 4
  %113 = call i1 @llvm.is.constant.i32(i32 %112)
  br i1 %113, label %114, label %118

114:                                              ; preds = %111
  %115 = load i32, ptr %8, align 4
  %116 = icmp sge i32 %115, 21
  br i1 %116, label %117, label %118

117:                                              ; preds = %114
  unreachable

118:                                              ; preds = %114, %111
  br label %119

119:                                              ; preds = %118
  br label %120

120:                                              ; preds = %119
  br label %121

121:                                              ; preds = %120, %92
  br label %122

122:                                              ; preds = %121, %55
  call void @pgstat_report_wait_end()
  %123 = load i32, ptr %11, align 4
  %124 = call i32 @CloseTransientFile(i32 noundef %123)
  %125 = icmp ne i32 %124, 0
  br i1 %125, label %126, label %153

126:                                              ; preds = %122
  br label %127

127:                                              ; preds = %126
  %128 = load i32, ptr %8, align 4
  %129 = call i1 @llvm.is.constant.i32(i32 %128)
  br i1 %129, label %130, label %136

130:                                              ; preds = %127
  %131 = load i32, ptr %8, align 4
  %132 = icmp sge i32 %131, 21
  br i1 %132, label %133, label %136

133:                                              ; preds = %130
  %134 = load i32, ptr %8, align 4
  %135 = call zeroext i1 @errstart_cold(i32 noundef %134, ptr noundef null) #9
  br i1 %135, label %139, label %143

136:                                              ; preds = %130, %127
  %137 = load i32, ptr %8, align 4
  %138 = call zeroext i1 @errstart(i32 noundef %137, ptr noundef null)
  br i1 %138, label %139, label %143

139:                                              ; preds = %136, %133
  %140 = call i32 @errcode_for_file_access()
  %141 = getelementptr inbounds [1024 x i8], ptr %9, i64 0, i64 0
  %142 = call i32 (ptr, ...) @errmsg(ptr noundef @.str.16, ptr noundef %141)
  call void @errfinish(ptr noundef @.str.1, i32 noundef 842, ptr noundef @__func__.read_relmap_file)
  br label %143

143:                                              ; preds = %139, %136, %133
  %144 = load i32, ptr %8, align 4
  %145 = call i1 @llvm.is.constant.i32(i32 %144)
  br i1 %145, label %146, label %150

146:                                              ; preds = %143
  %147 = load i32, ptr %8, align 4
  %148 = icmp sge i32 %147, 21
  br i1 %148, label %149, label %150

149:                                              ; preds = %146
  unreachable

150:                                              ; preds = %146, %143
  br label %151

151:                                              ; preds = %150
  br label %152

152:                                              ; preds = %151
  br label %153

153:                                              ; preds = %152, %122
  %154 = load i8, ptr %7, align 1, !range !4, !noundef !5
  %155 = trunc i8 %154 to i1
  br i1 %155, label %159, label %156

156:                                              ; preds = %153
  %157 = load ptr, ptr @MainLWLockArray, align 8
  %158 = getelementptr inbounds %union.LWLockPadded, ptr %157, i64 25
  call void @LWLockRelease(ptr noundef %158)
  br label %159

159:                                              ; preds = %156, %153
  %160 = load ptr, ptr %5, align 8
  %161 = getelementptr inbounds nuw %struct.RelMapFile, ptr %160, i32 0, i32 0
  %162 = load i32, ptr %161, align 4
  %163 = icmp ne i32 %162, 5842711
  br i1 %163, label %174, label %164

164:                                              ; preds = %159
  %165 = load ptr, ptr %5, align 8
  %166 = getelementptr inbounds nuw %struct.RelMapFile, ptr %165, i32 0, i32 1
  %167 = load i32, ptr %166, align 4
  %168 = icmp slt i32 %167, 0
  br i1 %168, label %174, label %169

169:                                              ; preds = %164
  %170 = load ptr, ptr %5, align 8
  %171 = getelementptr inbounds nuw %struct.RelMapFile, ptr %170, i32 0, i32 1
  %172 = load i32, ptr %171, align 4
  %173 = icmp sgt i32 %172, 64
  br i1 %173, label %174, label %200

174:                                              ; preds = %169, %164, %159
  br label %175

175:                                              ; preds = %174
  %176 = load i32, ptr %8, align 4
  %177 = call i1 @llvm.is.constant.i32(i32 %176)
  br i1 %177, label %178, label %184

178:                                              ; preds = %175
  %179 = load i32, ptr %8, align 4
  %180 = icmp sge i32 %179, 21
  br i1 %180, label %181, label %184

181:                                              ; preds = %178
  %182 = load i32, ptr %8, align 4
  %183 = call zeroext i1 @errstart_cold(i32 noundef %182, ptr noundef null) #9
  br i1 %183, label %187, label %190

184:                                              ; preds = %178, %175
  %185 = load i32, ptr %8, align 4
  %186 = call zeroext i1 @errstart(i32 noundef %185, ptr noundef null)
  br i1 %186, label %187, label %190

187:                                              ; preds = %184, %181
  %188 = getelementptr inbounds [1024 x i8], ptr %9, i64 0, i64 0
  %189 = call i32 (ptr, ...) @errmsg(ptr noundef @.str.17, ptr noundef %188)
  call void @errfinish(ptr noundef @.str.1, i32 noundef 853, ptr noundef @__func__.read_relmap_file)
  br label %190

190:                                              ; preds = %187, %184, %181
  %191 = load i32, ptr %8, align 4
  %192 = call i1 @llvm.is.constant.i32(i32 %191)
  br i1 %192, label %193, label %197

193:                                              ; preds = %190
  %194 = load i32, ptr %8, align 4
  %195 = icmp sge i32 %194, 21
  br i1 %195, label %196, label %197

196:                                              ; preds = %193
  unreachable

197:                                              ; preds = %193, %190
  br label %198

198:                                              ; preds = %197
  br label %199

199:                                              ; preds = %198
  br label %200

200:                                              ; preds = %199, %169
  store i32 -1, ptr %10, align 4
  %201 = load ptr, ptr @pg_comp_crc32c, align 8
  %202 = load i32, ptr %10, align 4
  %203 = load ptr, ptr %5, align 8
  %204 = call i32 %201(i32 noundef %202, ptr noundef %203, i64 noundef 520)
  store i32 %204, ptr %10, align 4
  %205 = load i32, ptr %10, align 4
  %206 = xor i32 %205, -1
  store i32 %206, ptr %10, align 4
  %207 = load i32, ptr %10, align 4
  %208 = load ptr, ptr %5, align 8
  %209 = getelementptr inbounds nuw %struct.RelMapFile, ptr %208, i32 0, i32 3
  %210 = load i32, ptr %209, align 4
  %211 = icmp eq i32 %207, %210
  br i1 %211, label %238, label %212

212:                                              ; preds = %200
  br label %213

213:                                              ; preds = %212
  %214 = load i32, ptr %8, align 4
  %215 = call i1 @llvm.is.constant.i32(i32 %214)
  br i1 %215, label %216, label %222

216:                                              ; preds = %213
  %217 = load i32, ptr %8, align 4
  %218 = icmp sge i32 %217, 21
  br i1 %218, label %219, label %222

219:                                              ; preds = %216
  %220 = load i32, ptr %8, align 4
  %221 = call zeroext i1 @errstart_cold(i32 noundef %220, ptr noundef null) #9
  br i1 %221, label %225, label %228

222:                                              ; preds = %216, %213
  %223 = load i32, ptr %8, align 4
  %224 = call zeroext i1 @errstart(i32 noundef %223, ptr noundef null)
  br i1 %224, label %225, label %228

225:                                              ; preds = %222, %219
  %226 = getelementptr inbounds [1024 x i8], ptr %9, i64 0, i64 0
  %227 = call i32 (ptr, ...) @errmsg(ptr noundef @.str.18, ptr noundef %226)
  call void @errfinish(ptr noundef @.str.1, i32 noundef 863, ptr noundef @__func__.read_relmap_file)
  br label %228

228:                                              ; preds = %225, %222, %219
  %229 = load i32, ptr %8, align 4
  %230 = call i1 @llvm.is.constant.i32(i32 %229)
  br i1 %230, label %231, label %235

231:                                              ; preds = %228
  %232 = load i32, ptr %8, align 4
  %233 = icmp sge i32 %232, 21
  br i1 %233, label %234, label %235

234:                                              ; preds = %231
  unreachable

235:                                              ; preds = %231, %228
  br label %236

236:                                              ; preds = %235
  br label %237

237:                                              ; preds = %236
  br label %238

238:                                              ; preds = %237, %200
  call void @llvm.lifetime.end.p0(i64 4, ptr %12) #8
  call void @llvm.lifetime.end.p0(i64 4, ptr %11) #8
  call void @llvm.lifetime.end.p0(i64 4, ptr %10) #8
  call void @llvm.lifetime.end.p0(i64 1024, ptr %9) #8
  ret void
}