; Function Attrs: nounwind uwtable
define internal fastcc void @read_relmap_file(ptr noundef %0, ptr noundef %1, i1 noundef zeroext %2, i32 noundef range(i32 21, 23) %3) unnamed_addr #2 {
  %5 = alloca [1024 x i8], align 16
  call void @llvm.lifetime.start.p0(i64 1024, ptr nonnull %5) #12
  br i1 %2, label %10, label %6

6:                                                ; preds = %4
  %7 = load ptr, ptr @MainLWLockArray, align 8
  %8 = getelementptr inbounds nuw i8, ptr %7, i64 3200
  %9 = tail call zeroext i1 @LWLockAcquire(ptr noundef nonnull %8, i32 noundef 1) #12
  br label %10

10:                                               ; preds = %6, %4
  %11 = call i32 (ptr, i64, ptr, ...) @pg_snprintf(ptr noundef nonnull %5, i64 noundef 1024, ptr noundef nonnull @.str.11, ptr noundef %1, ptr noundef nonnull @.str.12) #12
  %12 = call i32 @OpenTransientFile(ptr noundef nonnull %5, i32 noundef 0) #12
  %13 = icmp slt i32 %12, 0
  br i1 %13, label %14, label %19

14:                                               ; preds = %10
  %15 = call zeroext i1 @errstart(i32 noundef %3, ptr noundef null) #12
  br i1 %15, label %16, label %19

16:                                               ; preds = %14
  %17 = call i32 @errcode_for_file_access() #12
  %18 = call i32 (ptr, ...) @errmsg(ptr noundef nonnull @.str.13, ptr noundef nonnull %5) #12
  call void @errfinish(ptr noundef nonnull @.str.1, i32 noundef 819, ptr noundef nonnull @__func__.read_relmap_file) #12
  br label %19

19:                                               ; preds = %14, %16, %10
  %20 = load ptr, ptr @my_wait_event_info, align 8
  store volatile i32 167772196, ptr %20, align 4
  %21 = call i64 @read(i32 noundef %12, ptr noundef %0, i64 noundef 524) #12
  %22 = trunc i64 %21 to i32
  %sext.mask = and i64 %21, 4294967295
  %.not = icmp eq i64 %sext.mask, 524
  br i1 %.not, label %.sink.split, label %23

23:                                               ; preds = %19
  %24 = icmp slt i32 %22, 0
  %25 = call zeroext i1 @errstart(i32 noundef %3, ptr noundef null) #12
  br i1 %24, label %26, label %30

26:                                               ; preds = %23
  br i1 %25, label %27, label %.sink.split

27:                                               ; preds = %26
  %28 = call i32 @errcode_for_file_access() #12
  %29 = call i32 (ptr, ...) @errmsg(ptr noundef nonnull @.str.14, ptr noundef nonnull %5) #12
  br label %.sink.split.sink.split

30:                                               ; preds = %23
  br i1 %25, label %31, label %.sink.split

31:                                               ; preds = %30
  %32 = call i32 @errcode(i32 noundef 16779816) #12
  %33 = call i32 (ptr, ...) @errmsg(ptr noundef nonnull @.str.15, ptr noundef nonnull %5, i32 noundef %22, i64 noundef 524) #12
  br label %.sink.split.sink.split

.sink.split.sink.split:                           ; preds = %27, %31
  %.sink = phi i32 [ 834, %31 ], [ 829, %27 ]
  call void @errfinish(ptr noundef nonnull @.str.1, i32 noundef %.sink, ptr noundef nonnull @__func__.read_relmap_file) #12
  br label %.sink.split

.sink.split:                                      ; preds = %26, %30, %.sink.split.sink.split, %19
  %34 = load ptr, ptr @my_wait_event_info, align 8
  store volatile i32 0, ptr %34, align 4
  %35 = call i32 @CloseTransientFile(i32 noundef %12) #12
  %.not78 = icmp eq i32 %35, 0
  br i1 %.not78, label %41, label %36

36:                                               ; preds = %.sink.split
  %37 = call zeroext i1 @errstart(i32 noundef %3, ptr noundef null) #12
  br i1 %37, label %38, label %41

38:                                               ; preds = %36
  %39 = call i32 @errcode_for_file_access() #12
  %40 = call i32 (ptr, ...) @errmsg(ptr noundef nonnull @.str.16, ptr noundef nonnull %5) #12
  call void @errfinish(ptr noundef nonnull @.str.1, i32 noundef 842, ptr noundef nonnull @__func__.read_relmap_file) #12
  br label %41

41:                                               ; preds = %36, %38, %.sink.split
  br i1 %2, label %45, label %42

42:                                               ; preds = %41
  %43 = load ptr, ptr @MainLWLockArray, align 8
  %44 = getelementptr inbounds nuw i8, ptr %43, i64 3200
  call void @LWLockRelease(ptr noundef nonnull %44) #12
  br label %45

45:                                               ; preds = %42, %41
  %46 = load i32, ptr %0, align 4
  %.not79 = icmp eq i32 %46, 5842711
  br i1 %.not79, label %47, label %50

47:                                               ; preds = %45
  %48 = getelementptr inbounds nuw i8, ptr %0, i64 4
  %49 = load i32, ptr %48, align 4
  %or.cond = icmp ugt i32 %49, 64
  br i1 %or.cond, label %50, label %54

50:                                               ; preds = %47, %45
  %51 = call zeroext i1 @errstart(i32 noundef %3, ptr noundef null) #12
  br i1 %51, label %52, label %54

52:                                               ; preds = %50
  %53 = call i32 (ptr, ...) @errmsg(ptr noundef nonnull @.str.17, ptr noundef nonnull %5) #12
  call void @errfinish(ptr noundef nonnull @.str.1, i32 noundef 853, ptr noundef nonnull @__func__.read_relmap_file) #12
  br label %54

54:                                               ; preds = %50, %52, %47
  %55 = load ptr, ptr @pg_comp_crc32c, align 8
  %56 = call i32 %55(i32 noundef -1, ptr noundef nonnull %0, i64 noundef 520) #12
  %57 = getelementptr inbounds nuw i8, ptr %0, i64 520
  %58 = load i32, ptr %57, align 4
  %59 = xor i32 %58, %56
  %60 = icmp eq i32 %59, -1
  br i1 %60, label %65, label %61

61:                                               ; preds = %54
  %62 = call zeroext i1 @errstart(i32 noundef %3, ptr noundef null) #12
  br i1 %62, label %63, label %65

63:                                               ; preds = %61
  %64 = call i32 (ptr, ...) @errmsg(ptr noundef nonnull @.str.18, ptr noundef nonnull %5) #12
  call void @errfinish(ptr noundef nonnull @.str.1, i32 noundef 863, ptr noundef nonnull @__func__.read_relmap_file) #12
  br label %65

65:                                               ; preds = %61, %63, %54
  call void @llvm.lifetime.end.p0(i64 1024, ptr nonnull %5) #12
  ret void
}